; ModuleID = '53/921.c'
source_filename = "53/921.c"
target datalayout = "e-m:e-p270:32:32-p271:32:32-p272:64:64-i64:64-f80:128-n8:16:32:64-S128"
target triple = "x86_64-pc-linux-gnu"

%struct.number = type { i32, i32 }

@.str = private unnamed_addr constant [3 x i8] c"%d\00", align 1
@.str.1 = private unnamed_addr constant [2 x i8] c",\00", align 1
@.str.2 = private unnamed_addr constant [2 x i8] c"\0A\00", align 1

; Function Attrs: noinline nounwind uwtable
define dso_local void @main() #0 {
  %1 = alloca i32, align 4
  %2 = alloca i32, align 4
  %3 = alloca i32, align 4
  %4 = alloca i32, align 4
  %5 = alloca [300 x %struct.number], align 16
  store i32 0, i32* %2, align 4
  %6 = call i32 (i8*, ...) @__isoc99_scanf(i8* getelementptr inbounds ([3 x i8], [3 x i8]* @.str, i64 0, i64 0), i32* %1)
  store i32 0, i32* %3, align 4
  br label %7

7:                                                ; preds = %17, %0
  %8 = load i32, i32* %3, align 4
  %9 = load i32, i32* %1, align 4
  %10 = icmp slt i32 %8, %9
  br i1 %10, label %11, label %20

11:                                               ; preds = %7
  %12 = load i32, i32* %3, align 4
  %13 = sext i32 %12 to i64
  %14 = getelementptr inbounds [300 x %struct.number], [300 x %struct.number]* %5, i64 0, i64 %13
  %15 = getelementptr inbounds %struct.number, %struct.number* %14, i32 0, i32 0
  %16 = call i32 (i8*, ...) @__isoc99_scanf(i8* getelementptr inbounds ([3 x i8], [3 x i8]* @.str, i64 0, i64 0), i32* %15)
  br label %17

17:                                               ; preds = %11
  %18 = load i32, i32* %3, align 4
  %19 = add nsw i32 %18, 1
  store i32 %19, i32* %3, align 4
  br label %7

20:                                               ; preds = %7
  store i32 0, i32* %3, align 4
  br label %21

21:                                               ; preds = %30, %20
  %22 = load i32, i32* %3, align 4
  %23 = load i32, i32* %1, align 4
  %24 = icmp slt i32 %22, %23
  br i1 %24, label %25, label %33

25:                                               ; preds = %21
  %26 = load i32, i32* %3, align 4
  %27 = sext i32 %26 to i64
  %28 = getelementptr inbounds [300 x %struct.number], [300 x %struct.number]* %5, i64 0, i64 %27
  %29 = getelementptr inbounds %struct.number, %struct.number* %28, i32 0, i32 1
  store i32 1, i32* %29, align 4
  br label %30

30:                                               ; preds = %25
  %31 = load i32, i32* %3, align 4
  %32 = add nsw i32 %31, 1
  store i32 %32, i32* %3, align 4
  br label %21

33:                                               ; preds = %21
  store i32 0, i32* %3, align 4
  br label %34

34:                                               ; preds = %67, %33
  %35 = load i32, i32* %3, align 4
  %36 = load i32, i32* %1, align 4
  %37 = icmp slt i32 %35, %36
  br i1 %37, label %38, label %70

38:                                               ; preds = %34
  %39 = load i32, i32* %3, align 4
  %40 = add nsw i32 %39, 1
  store i32 %40, i32* %4, align 4
  br label %41

41:                                               ; preds = %63, %38
  %42 = load i32, i32* %4, align 4
  %43 = load i32, i32* %1, align 4
  %44 = icmp slt i32 %42, %43
  br i1 %44, label %45, label %66

45:                                               ; preds = %41
  %46 = load i32, i32* %4, align 4
  %47 = sext i32 %46 to i64
  %48 = getelementptr inbounds [300 x %struct.number], [300 x %struct.number]* %5, i64 0, i64 %47
  %49 = getelementptr inbounds %struct.number, %struct.number* %48, i32 0, i32 0
  %50 = load i32, i32* %49, align 8
  %51 = load i32, i32* %3, align 4
  %52 = sext i32 %51 to i64
  %53 = getelementptr inbounds [300 x %struct.number], [300 x %struct.number]* %5, i64 0, i64 %52
  %54 = getelementptr inbounds %struct.number, %struct.number* %53, i32 0, i32 0
  %55 = load i32, i32* %54, align 8
  %56 = icmp eq i32 %50, %55
  br i1 %56, label %57, label %62

57:                                               ; preds = %45
  %58 = load i32, i32* %4, align 4
  %59 = sext i32 %58 to i64
  %60 = getelementptr inbounds [300 x %struct.number], [300 x %struct.number]* %5, i64 0, i64 %59
  %61 = getelementptr inbounds %struct.number, %struct.number* %60, i32 0, i32 1
  store i32 0, i32* %61, align 4
  br label %62

62:                                               ; preds = %57, %45
  br label %63

63:                                               ; preds = %62
  %64 = load i32, i32* %4, align 4
  %65 = add nsw i32 %64, 1
  store i32 %65, i32* %4, align 4
  br label %41

66:                                               ; preds = %41
  br label %67

67:                                               ; preds = %66
  %68 = load i32, i32* %3, align 4
  %69 = add nsw i32 %68, 1
  store i32 %69, i32* %3, align 4
  br label %34

70:                                               ; preds = %34
  store i32 0, i32* %3, align 4
  br label %71

71:                                               ; preds = %95, %70
  %72 = load i32, i32* %3, align 4
  %73 = load i32, i32* %1, align 4
  %74 = icmp slt i32 %72, %73
  br i1 %74, label %75, label %98

75:                                               ; preds = %71
  %76 = load i32, i32* %3, align 4
  %77 = sext i32 %76 to i64
  %78 = getelementptr inbounds [300 x %struct.number], [300 x %struct.number]* %5, i64 0, i64 %77
  %79 = getelementptr inbounds %struct.number, %struct.number* %78, i32 0, i32 1
  %80 = load i32, i32* %79, align 4
  %81 = icmp eq i32 %80, 1
  br i1 %81, label %82, label %94

82:                                               ; preds = %75
  %83 = load i32, i32* %2, align 4
  %84 = icmp eq i32 %83, 1
  br i1 %84, label %85, label %87

85:                                               ; preds = %82
  %86 = call i32 (i8*, ...) @printf(i8* getelementptr inbounds ([2 x i8], [2 x i8]* @.str.1, i64 0, i64 0))
  br label %87

87:                                               ; preds = %85, %82
  store i32 1, i32* %2, align 4
  %88 = load i32, i32* %3, align 4
  %89 = sext i32 %88 to i64
  %90 = getelementptr inbounds [300 x %struct.number], [300 x %struct.number]* %5, i64 0, i64 %89
  %91 = getelementptr inbounds %struct.number, %struct.number* %90, i32 0, i32 0
  %92 = load i32, i32* %91, align 8
  %93 = call i32 (i8*, ...) @printf(i8* getelementptr inbounds ([3 x i8], [3 x i8]* @.str, i64 0, i64 0), i32 %92)
  br label %94

94:                                               ; preds = %87, %75
  br label %95

95:                                               ; preds = %94
  %96 = load i32, i32* %3, align 4
  %97 = add nsw i32 %96, 1
  store i32 %97, i32* %3, align 4
  br label %71

98:                                               ; preds = %71
  %99 = call i32 (i8*, ...) @printf(i8* getelementptr inbounds ([2 x i8], [2 x i8]* @.str.2, i64 0, i64 0))
  ret void
}

declare dso_local i32 @__isoc99_scanf(i8*, ...) #1

declare dso_local i32 @printf(i8*, ...) #1


!llvm.module.flags = !{!0}
!llvm.ident = !{!1}

!0 = !{i32 1, !"wchar_size", i32 4}
!1 = !{!"clang version 10.0.0-4ubuntu1 "}
